; Function Attrs: mustprogress nounwind uwtable
define internal void @_ZN7testing8internal30ValuesInIteratorRangeGeneratorIN11opencv_test12_GLOBAL__N_112_GLOBAL__N_18RetrModeEED2Ev(ptr nocapture noundef nonnull align 8 dereferenceable(32) %0) unnamed_addr #6 align 2 personality ptr @__gxx_personality_v0 {
  store ptr getelementptr inbounds inrange(-16, 32) (i8, ptr @_ZTVN7testing8internal30ValuesInIteratorRangeGeneratorIN11opencv_test12_GLOBAL__N_112_GLOBAL__N_18RetrModeEEE, i64 16), ptr %0, align 8
  %2 = getelementptr inbounds i8, ptr %0, i64 8
  %.val = load ptr, ptr %2, align 8
  %.not.i.i.i = icmp eq ptr %.val, null
  br i1 %.not.i.i.i, label %_ZNSt6vectorIN11opencv_test12_GLOBAL__N_112_GLOBAL__N_18RetrModeESaIS3_EED2Ev.exit, label %3

3:                                                ; preds = %1
  tail call void @_ZdlPv(ptr noundef nonnull %.val) #29
  br label %_ZNSt6vectorIN11opencv_test12_GLOBAL__N_112_GLOBAL__N_18RetrModeESaIS3_EED2Ev.exit

_ZNSt6vectorIN11opencv_test12_GLOBAL__N_112_GLOBAL__N_18RetrModeESaIS3_EED2Ev.exit: ; preds = %1, %3
  ret void
}